; Function Attrs: nounwind uwtable
define internal ptr @mappingproxy_ior(ptr noundef readonly captures(none) %0, ptr readnone captures(none) %1) #0 {
  %3 = load ptr, ptr @PyExc_TypeError, align 8, !tbaa !30
  %4 = getelementptr i8, ptr %0, i64 8
  %.val = load ptr, ptr %4, align 8, !tbaa !19
  %5 = getelementptr inbounds nuw i8, ptr %.val, i64 24
  %6 = load ptr, ptr %5, align 8, !tbaa !29
  %7 = tail call ptr (ptr, ptr, ...) @PyErr_Format(ptr noundef %3, ptr noundef nonnull @.str.51, ptr noundef %6) #9
  ret ptr %7
}